target datalayout = "e-m:e-p270:32:32-p271:32:32-p272:64:64-i64:64-i128:128-f80:128-n8:16:32:64-S128"
target triple = "x86_64-pc-linux-gnu"

%"class.vas::KalmanFilterNoOpencv" = type { %"struct.vas::KalmanFilterNoOpencv::kalmanfilter1d32i", %"struct.vas::KalmanFilterNoOpencv::kalmanfilter1d32i", %"struct.vas::KalmanFilterNoOpencv::kalmanfilter1d32i", %"struct.vas::KalmanFilterNoOpencv::kalmanfilter1d32i", float, float, float }
%"struct.vas::KalmanFilterNoOpencv::kalmanfilter1d32i" = type { [2 x i32], [2 x [2 x i32]], [2 x [2 x i32]], i32, [2 x [2 x i32]], [2 x i32] }
%"class.cv::Rect_" = type { float, float, float, float }

; Function Attrs: inlinehint mustprogress nounwind uwtable
define linkonce_odr noundef nonnull align 4 dereferenceable(4) ptr @_ZSt3maxIiERKT_S2_S2_(ptr noundef nonnull align 4 dereferenceable(4) %0, ptr noundef nonnull align 4 dereferenceable(4) %1) #3 comdat {
  %3 = alloca ptr, align 8
  %4 = alloca ptr, align 8
  %5 = alloca ptr, align 8
  store ptr %0, ptr %4, align 8, !tbaa !25
  store ptr %1, ptr %5, align 8, !tbaa !25
  %6 = load ptr, ptr %4, align 8, !tbaa !25
  %7 = load i32, ptr %6, align 4, !tbaa !17
  %8 = load ptr, ptr %5, align 8, !tbaa !25
  %9 = load i32, ptr %8, align 4, !tbaa !17
  %10 = icmp slt i32 %7, %9
  br i1 %10, label %11, label %13

11:                                               ; preds = %2
  %12 = load ptr, ptr %5, align 8, !tbaa !25
  store ptr %12, ptr %3, align 8
  br label %15

13:                                               ; preds = %2
  %14 = load ptr, ptr %4, align 8, !tbaa !25
  store ptr %14, ptr %3, align 8
  br label %15

15:                                               ; preds = %13, %11
  %16 = load ptr, ptr %3, align 8
  ret ptr %16
}

; Function Attrs: mustprogress nounwind uwtable
define hidden void @_ZN3vas20KalmanFilterNoOpencv22kalmanfilter1d32i_initEPNS0_17kalmanfilter1d32iEPii(ptr noundef nonnull align 4 dereferenceable(284) %0, ptr noundef %1, ptr noundef %2, i32 noundef %3) #2 align 2 {
  %5 = alloca ptr, align 8
  %6 = alloca ptr, align 8
  %7 = alloca ptr, align 8
  %8 = alloca i32, align 4
  store ptr %0, ptr %5, align 8, !tbaa !3
  store ptr %1, ptr %6, align 8, !tbaa !23
  store ptr %2, ptr %7, align 8, !tbaa !25
  store i32 %3, ptr %8, align 4, !tbaa !17
  %9 = load ptr, ptr %6, align 8, !tbaa !23
  call void @llvm.memset.p0.i64(ptr align 4 %9, i8 0, i64 68, i1 false)
  %10 = load ptr, ptr %7, align 8, !tbaa !25
  %11 = icmp ne ptr %10, null
  br i1 %11, label %12, label %18

12:                                               ; preds = %4
  %13 = load ptr, ptr %7, align 8, !tbaa !25
  %14 = load i32, ptr %13, align 4, !tbaa !17
  %15 = load ptr, ptr %6, align 8, !tbaa !23
  %16 = getelementptr inbounds nuw %"struct.vas::KalmanFilterNoOpencv::kalmanfilter1d32i", ptr %15, i32 0, i32 0
  %17 = getelementptr inbounds [2 x i32], ptr %16, i64 0, i64 0
  store i32 %14, ptr %17, align 4, !tbaa !17
  br label %18

18:                                               ; preds = %12, %4
  %19 = load i32, ptr %8, align 4, !tbaa !17
  %20 = load ptr, ptr %6, align 8, !tbaa !23
  %21 = getelementptr inbounds nuw %"struct.vas::KalmanFilterNoOpencv::kalmanfilter1d32i", ptr %20, i32 0, i32 1
  %22 = getelementptr inbounds [2 x [2 x i32]], ptr %21, i64 0, i64 0
  %23 = getelementptr inbounds [2 x i32], ptr %22, i64 0, i64 0
  store i32 %19, ptr %23, align 4, !tbaa !17
  %24 = load ptr, ptr %6, align 8, !tbaa !23
  %25 = getelementptr inbounds nuw %"struct.vas::KalmanFilterNoOpencv::kalmanfilter1d32i", ptr %24, i32 0, i32 1
  %26 = getelementptr inbounds [2 x [2 x i32]], ptr %25, i64 0, i64 1
  %27 = getelementptr inbounds [2 x i32], ptr %26, i64 0, i64 1
  store i32 0, ptr %27, align 4, !tbaa !17
  ret void
}

; Function Attrs: mustprogress uwtable
define hidden void @_ZN3vas20KalmanFilterNoOpencvC2ERKN2cv5Rect_IfEE(ptr noundef nonnull align 4 dereferenceable(284) %0, ptr noundef nonnull align 4 dereferenceable(16) %1) unnamed_addr #0 align 2 {
  %3 = alloca ptr, align 8
  %4 = alloca ptr, align 8
  %5 = alloca i32, align 4
  %6 = alloca i32, align 4
  %7 = alloca i32, align 4
  %8 = alloca i32, align 4
  %9 = alloca i32, align 4
  %10 = alloca i32, align 4
  %11 = alloca i32, align 4
  %12 = alloca i32, align 4
  %13 = alloca i32, align 4
  %14 = alloca i32, align 4
  %15 = alloca i32, align 4
  %16 = alloca i32, align 4
  %17 = alloca i32, align 4
  store ptr %0, ptr %3, align 8, !tbaa !3
  store ptr %1, ptr %4, align 8, !tbaa !8
  %18 = load ptr, ptr %3, align 8
  %19 = getelementptr inbounds nuw %"class.vas::KalmanFilterNoOpencv", ptr %18, i32 0, i32 6
  store float 0x3FA0E56040000000, ptr %19, align 4, !tbaa !10
  call void @llvm.lifetime.start.p0(i64 4, ptr %5) #7
  %20 = load ptr, ptr %4, align 8, !tbaa !8
  %21 = getelementptr inbounds nuw %"class.cv::Rect_", ptr %20, i32 0, i32 0
  %22 = load float, ptr %21, align 4, !tbaa !15
  %23 = fptosi float %22 to i32
  store i32 %23, ptr %5, align 4, !tbaa !17
  call void @llvm.lifetime.start.p0(i64 4, ptr %6) #7
  %24 = load ptr, ptr %4, align 8, !tbaa !8
  %25 = getelementptr inbounds nuw %"class.cv::Rect_", ptr %24, i32 0, i32 0
  %26 = load float, ptr %25, align 4, !tbaa !15
  %27 = load ptr, ptr %4, align 8, !tbaa !8
  %28 = getelementptr inbounds nuw %"class.cv::Rect_", ptr %27, i32 0, i32 2
  %29 = load float, ptr %28, align 4, !tbaa !18
  %30 = fadd float %26, %29
  %31 = fptosi float %30 to i32
  store i32 %31, ptr %6, align 4, !tbaa !17
  call void @llvm.lifetime.start.p0(i64 4, ptr %7) #7
  %32 = load ptr, ptr %4, align 8, !tbaa !8
  %33 = getelementptr inbounds nuw %"class.cv::Rect_", ptr %32, i32 0, i32 1
  %34 = load float, ptr %33, align 4, !tbaa !19
  %35 = fptosi float %34 to i32
  store i32 %35, ptr %7, align 4, !tbaa !17
  call void @llvm.lifetime.start.p0(i64 4, ptr %8) #7
  %36 = load ptr, ptr %4, align 8, !tbaa !8
  %37 = getelementptr inbounds nuw %"class.cv::Rect_", ptr %36, i32 0, i32 1
  %38 = load float, ptr %37, align 4, !tbaa !19
  %39 = load ptr, ptr %4, align 8, !tbaa !8
  %40 = getelementptr inbounds nuw %"class.cv::Rect_", ptr %39, i32 0, i32 3
  %41 = load float, ptr %40, align 4, !tbaa !20
  %42 = fadd float %38, %41
  %43 = fptosi float %42 to i32
  store i32 %43, ptr %8, align 4, !tbaa !17
  call void @llvm.lifetime.start.p0(i64 4, ptr %9) #7
  %44 = load i32, ptr %5, align 4, !tbaa !17
  %45 = load i32, ptr %6, align 4, !tbaa !17
  %46 = add nsw i32 %44, %45
  %47 = shl i32 %46, 3
  store i32 %47, ptr %9, align 4, !tbaa !17
  call void @llvm.lifetime.start.p0(i64 4, ptr %10) #7
  %48 = load i32, ptr %7, align 4, !tbaa !17
  %49 = load i32, ptr %8, align 4, !tbaa !17
  %50 = add nsw i32 %48, %49
  %51 = shl i32 %50, 3
  store i32 %51, ptr %10, align 4, !tbaa !17
  call void @llvm.lifetime.start.p0(i64 4, ptr %11) #7
  %52 = load i32, ptr %6, align 4, !tbaa !17
  %53 = load i32, ptr %5, align 4, !tbaa !17
  %54 = sub nsw i32 %52, %53
  %55 = shl i32 %54, 3
  store i32 %55, ptr %11, align 4, !tbaa !17
  call void @llvm.lifetime.start.p0(i64 4, ptr %12) #7
  %56 = load i32, ptr %8, align 4, !tbaa !17
  %57 = load i32, ptr %7, align 4, !tbaa !17
  %58 = sub nsw i32 %56, %57
  %59 = shl i32 %58, 3
  store i32 %59, ptr %12, align 4, !tbaa !17
  %60 = getelementptr inbounds nuw %"class.vas::KalmanFilterNoOpencv", ptr %18, i32 0, i32 0
  call void @_ZN3vas20KalmanFilterNoOpencv22kalmanfilter1d32i_initEPNS0_17kalmanfilter1d32iEPii(ptr noundef nonnull align 4 dereferenceable(284) %18, ptr noundef %60, ptr noundef %9, i32 noundef 0)
  %61 = getelementptr inbounds nuw %"class.vas::KalmanFilterNoOpencv", ptr %18, i32 0, i32 1
  call void @_ZN3vas20KalmanFilterNoOpencv22kalmanfilter1d32i_initEPNS0_17kalmanfilter1d32iEPii(ptr noundef nonnull align 4 dereferenceable(284) %18, ptr noundef %61, ptr noundef %10, i32 noundef 0)
  %62 = getelementptr inbounds nuw %"class.vas::KalmanFilterNoOpencv", ptr %18, i32 0, i32 2
  call void @_ZN3vas20KalmanFilterNoOpencv22kalmanfilter1d32i_initEPNS0_17kalmanfilter1d32iEPii(ptr noundef nonnull align 4 dereferenceable(284) %18, ptr noundef %62, ptr noundef %11, i32 noundef 0)
  %63 = getelementptr inbounds nuw %"class.vas::KalmanFilterNoOpencv", ptr %18, i32 0, i32 3
  call void @_ZN3vas20KalmanFilterNoOpencv22kalmanfilter1d32i_initEPNS0_17kalmanfilter1d32iEPii(ptr noundef nonnull align 4 dereferenceable(284) %18, ptr noundef %63, ptr noundef %12, i32 noundef 0)
  call void @llvm.lifetime.start.p0(i64 4, ptr %13) #7
  call void @llvm.lifetime.start.p0(i64 4, ptr %14) #7
  store i32 64, ptr %14, align 4, !tbaa !17
  call void @llvm.lifetime.start.p0(i64 4, ptr %15) #7
  %64 = load i32, ptr %11, align 4, !tbaa !17
  %65 = load i32, ptr %12, align 4, !tbaa !17
  %66 = mul nsw i32 %64, %65
  store i32 %66, ptr %15, align 4, !tbaa !17
  %67 = call noundef nonnull align 4 dereferenceable(4) ptr @_ZSt3maxIiERKT_S2_S2_(ptr noundef nonnull align 4 dereferenceable(4) %14, ptr noundef nonnull align 4 dereferenceable(4) %15)
  %68 = load i32, ptr %67, align 4, !tbaa !17
  call void @llvm.lifetime.end.p0(i64 4, ptr %15) #7
  call void @llvm.lifetime.end.p0(i64 4, ptr %14) #7
  store i32 %68, ptr %13, align 4, !tbaa !17
  %69 = getelementptr inbounds nuw %"class.vas::KalmanFilterNoOpencv", ptr %18, i32 0, i32 4
  store float 0x3F50624DE0000000, ptr %69, align 4, !tbaa !21
  %70 = getelementptr inbounds nuw %"class.vas::KalmanFilterNoOpencv", ptr %18, i32 0, i32 5
  store float 0x3F60624DE0000000, ptr %70, align 4, !tbaa !22
  call void @llvm.lifetime.start.p0(i64 4, ptr %16) #7
  %71 = load i32, ptr %13, align 4, !tbaa !17
  %72 = sitofp i32 %71 to float
  %73 = getelementptr inbounds nuw %"class.vas::KalmanFilterNoOpencv", ptr %18, i32 0, i32 4
  %74 = load float, ptr %73, align 4, !tbaa !21
  %75 = fmul float %72, %74
  %76 = fptosi float %75 to i32
  store i32 %76, ptr %16, align 4, !tbaa !17
  call void @llvm.lifetime.start.p0(i64 4, ptr %17) #7
  %77 = load i32, ptr %13, align 4, !tbaa !17
  %78 = sitofp i32 %77 to float
  %79 = getelementptr inbounds nuw %"class.vas::KalmanFilterNoOpencv", ptr %18, i32 0, i32 5
  %80 = load float, ptr %79, align 4, !tbaa !22
  %81 = fmul float %78, %80
  %82 = fptosi float %81 to i32
  store i32 %82, ptr %17, align 4, !tbaa !17
  %83 = load i32, ptr %16, align 4, !tbaa !17
  %84 = getelementptr inbounds nuw %"class.vas::KalmanFilterNoOpencv", ptr %18, i32 0, i32 0
  %85 = getelementptr inbounds nuw %"struct.vas::KalmanFilterNoOpencv::kalmanfilter1d32i", ptr %84, i32 0, i32 2
  %86 = getelementptr inbounds [2 x [2 x i32]], ptr %85, i64 0, i64 0
  %87 = getelementptr inbounds [2 x i32], ptr %86, i64 0, i64 0
  store i32 %83, ptr %87, align 4, !tbaa !17
  %88 = load i32, ptr %16, align 4, !tbaa !17
  %89 = getelementptr inbounds nuw %"class.vas::KalmanFilterNoOpencv", ptr %18, i32 0, i32 0
  %90 = getelementptr inbounds nuw %"struct.vas::KalmanFilterNoOpencv::kalmanfilter1d32i", ptr %89, i32 0, i32 2
  %91 = getelementptr inbounds [2 x [2 x i32]], ptr %90, i64 0, i64 1
  %92 = getelementptr inbounds [2 x i32], ptr %91, i64 0, i64 1
  store i32 %88, ptr %92, align 4, !tbaa !17
  %93 = load i32, ptr %16, align 4, !tbaa !17
  %94 = getelementptr inbounds nuw %"class.vas::KalmanFilterNoOpencv", ptr %18, i32 0, i32 1
  %95 = getelementptr inbounds nuw %"struct.vas::KalmanFilterNoOpencv::kalmanfilter1d32i", ptr %94, i32 0, i32 2
  %96 = getelementptr inbounds [2 x [2 x i32]], ptr %95, i64 0, i64 0
  %97 = getelementptr inbounds [2 x i32], ptr %96, i64 0, i64 0
  store i32 %93, ptr %97, align 4, !tbaa !17
  %98 = load i32, ptr %16, align 4, !tbaa !17
  %99 = getelementptr inbounds nuw %"class.vas::KalmanFilterNoOpencv", ptr %18, i32 0, i32 1
  %100 = getelementptr inbounds nuw %"struct.vas::KalmanFilterNoOpencv::kalmanfilter1d32i", ptr %99, i32 0, i32 2
  %101 = getelementptr inbounds [2 x [2 x i32]], ptr %100, i64 0, i64 1
  %102 = getelementptr inbounds [2 x i32], ptr %101, i64 0, i64 1
  store i32 %98, ptr %102, align 4, !tbaa !17
  %103 = load i32, ptr %17, align 4, !tbaa !17
  %104 = getelementptr inbounds nuw %"class.vas::KalmanFilterNoOpencv", ptr %18, i32 0, i32 2
  %105 = getelementptr inbounds nuw %"struct.vas::KalmanFilterNoOpencv::kalmanfilter1d32i", ptr %104, i32 0, i32 2
  %106 = getelementptr inbounds [2 x [2 x i32]], ptr %105, i64 0, i64 0
  %107 = getelementptr inbounds [2 x i32], ptr %106, i64 0, i64 0
  store i32 %103, ptr %107, align 4, !tbaa !17
  %108 = load i32, ptr %17, align 4, !tbaa !17
  %109 = getelementptr inbounds nuw %"class.vas::KalmanFilterNoOpencv", ptr %18, i32 0, i32 3
  %110 = getelementptr inbounds nuw %"struct.vas::KalmanFilterNoOpencv::kalmanfilter1d32i", ptr %109, i32 0, i32 2
  %111 = getelementptr inbounds [2 x [2 x i32]], ptr %110, i64 0, i64 0
  %112 = getelementptr inbounds [2 x i32], ptr %111, i64 0, i64 0
  store i32 %108, ptr %112, align 4, !tbaa !17
  call void @llvm.lifetime.end.p0(i64 4, ptr %17) #7
  call void @llvm.lifetime.end.p0(i64 4, ptr %16) #7
  call void @llvm.lifetime.end.p0(i64 4, ptr %13) #7
  call void @llvm.lifetime.end.p0(i64 4, ptr %12) #7
  call void @llvm.lifetime.end.p0(i64 4, ptr %11) #7
  call void @llvm.lifetime.end.p0(i64 4, ptr %10) #7
  call void @llvm.lifetime.end.p0(i64 4, ptr %9) #7
  call void @llvm.lifetime.end.p0(i64 4, ptr %8) #7
  call void @llvm.lifetime.end.p0(i64 4, ptr %7) #7
  call void @llvm.lifetime.end.p0(i64 4, ptr %6) #7
  call void @llvm.lifetime.end.p0(i64 4, ptr %5) #7
  ret void
}