; Function Attrs: mustprogress nofree norecurse nosync nounwind willreturn memory(argmem: readwrite) uwtable
define hidden void @_ZN3vas20KalmanFilterNoOpencvC2ERKN2cv5Rect_IfEE(ptr noundef nonnull writeonly align 4 captures(none) dereferenceable(284) initializes((0, 284)) %0, ptr noundef nonnull readonly align 4 captures(none) dereferenceable(16) %1) unnamed_addr #0 align 2 {
  %3 = getelementptr inbounds nuw i8, ptr %0, i64 280
  store float 0x3FA0E56040000000, ptr %3, align 4, !tbaa !3
  %4 = load float, ptr %1, align 4, !tbaa !10
  %5 = fptosi float %4 to i32
  %6 = getelementptr inbounds nuw i8, ptr %1, i64 8
  %7 = load float, ptr %6, align 4, !tbaa !12
  %8 = fadd float %4, %7
  %9 = fptosi float %8 to i32
  %10 = getelementptr inbounds nuw i8, ptr %1, i64 4
  %11 = load float, ptr %10, align 4, !tbaa !13
  %12 = fptosi float %11 to i32
  %13 = getelementptr inbounds nuw i8, ptr %1, i64 12
  %14 = load float, ptr %13, align 4, !tbaa !14
  %15 = fadd float %11, %14
  %16 = fptosi float %15 to i32
  %17 = add nsw i32 %9, %5
  %18 = shl i32 %17, 3
  %19 = add nsw i32 %16, %12
  %20 = shl i32 %19, 3
  %21 = sub nsw i32 %9, %5
  %22 = shl i32 %21, 3
  %23 = sub nsw i32 %16, %12
  %24 = shl i32 %23, 3
  %25 = getelementptr inbounds nuw i8, ptr %0, i64 4
  tail call void @llvm.memset.p0.i64(ptr noundef nonnull align 4 dereferenceable(64) %25, i8 0, i64 64, i1 false)
  store i32 %18, ptr %0, align 4, !tbaa !15
  %26 = getelementptr inbounds nuw i8, ptr %0, i64 20
  store i32 0, ptr %26, align 4, !tbaa !15
  %27 = getelementptr inbounds nuw i8, ptr %0, i64 68
  %28 = getelementptr inbounds nuw i8, ptr %0, i64 72
  tail call void @llvm.memset.p0.i64(ptr noundef nonnull align 4 dereferenceable(64) %28, i8 0, i64 64, i1 false)
  store i32 %20, ptr %27, align 4, !tbaa !15
  %29 = getelementptr inbounds nuw i8, ptr %0, i64 88
  store i32 0, ptr %29, align 4, !tbaa !15
  %30 = getelementptr inbounds nuw i8, ptr %0, i64 136
  %31 = getelementptr inbounds nuw i8, ptr %0, i64 140
  tail call void @llvm.memset.p0.i64(ptr noundef nonnull align 4 dereferenceable(64) %31, i8 0, i64 64, i1 false)
  store i32 %22, ptr %30, align 4, !tbaa !15
  %32 = getelementptr inbounds nuw i8, ptr %0, i64 156
  store i32 0, ptr %32, align 4, !tbaa !15
  %33 = getelementptr inbounds nuw i8, ptr %0, i64 204
  %34 = getelementptr inbounds nuw i8, ptr %0, i64 208
  tail call void @llvm.memset.p0.i64(ptr noundef nonnull align 4 dereferenceable(64) %34, i8 0, i64 64, i1 false)
  store i32 %24, ptr %33, align 4, !tbaa !15
  %35 = getelementptr inbounds nuw i8, ptr %0, i64 224
  store i32 0, ptr %35, align 4, !tbaa !15
  %36 = mul nsw i32 %24, %22
  %.sroa.speculated = tail call i32 @llvm.smax.i32(i32 %36, i32 64)
  %37 = getelementptr inbounds nuw i8, ptr %0, i64 272
  store float 0x3F50624DE0000000, ptr %37, align 4, !tbaa !16
  %38 = getelementptr inbounds nuw i8, ptr %0, i64 276
  store float 0x3F60624DE0000000, ptr %38, align 4, !tbaa !17
  %39 = uitofp nneg i32 %.sroa.speculated to float
  %40 = fmul float %39, 0x3F50624DE0000000
  %41 = fptosi float %40 to i32
  %42 = fmul float %39, 0x3F60624DE0000000
  %43 = fptosi float %42 to i32
  %44 = getelementptr inbounds nuw i8, ptr %0, i64 24
  store i32 %41, ptr %44, align 4, !tbaa !15
  %45 = getelementptr inbounds nuw i8, ptr %0, i64 36
  store i32 %41, ptr %45, align 4, !tbaa !15
  %46 = getelementptr inbounds nuw i8, ptr %0, i64 92
  store i32 %41, ptr %46, align 4, !tbaa !15
  %47 = getelementptr inbounds nuw i8, ptr %0, i64 104
  store i32 %41, ptr %47, align 4, !tbaa !15
  %48 = getelementptr inbounds nuw i8, ptr %0, i64 160
  store i32 %43, ptr %48, align 4, !tbaa !15
  %49 = getelementptr inbounds nuw i8, ptr %0, i64 228
  store i32 %43, ptr %49, align 4, !tbaa !15
  ret void
}